; Function Attrs: mustprogress uwtable
define dso_local noundef nonnull ptr @_ZNK4i18n12phonenumbers16ICURegExpFactory11CreateInputERKNSt7__cxx1112basic_stringIcSt11char_traitsIcESaIcEEE(ptr nonnull readnone align 8 captures(none) %0, ptr noundef nonnull readonly align 8 captures(none) dereferenceable(32) %1) unnamed_addr #0 align 2 personality ptr @__gxx_personality_v0 {
  %3 = tail call noalias noundef nonnull dereferenceable(80) ptr @_Znwm(i64 noundef 80) #15
  store ptr getelementptr inbounds nuw inrange(-16, 24) (i8, ptr @_ZTVN4i18n12phonenumbers14IcuRegExpInputE, i64 16), ptr %3, align 8, !tbaa !4
  %4 = getelementptr inbounds nuw i8, ptr %3, i64 8
  %.val.i = load ptr, ptr %1, align 8, !tbaa !7
  %5 = getelementptr inbounds nuw i8, ptr %1, i64 8
  %.val3.i = load i64, ptr %5, align 8, !tbaa !14
  %6 = trunc i64 %.val3.i to i32
  invoke void @_ZN6icu_7013UnicodeString8fromUTF8ENS_11StringPieceE(ptr dead_on_unwind nonnull writable sret(%"class.icu_70::UnicodeString") align 8 %4, ptr %.val.i, i32 %6)
          to label %7 unwind label %9

7:                                                ; preds = %2
  %8 = getelementptr inbounds nuw i8, ptr %3, i64 72
  store i32 0, ptr %8, align 8, !tbaa !15
  ret ptr %3

9:                                                ; preds = %2
  %10 = landingpad { ptr, i32 }
          cleanup
  tail call void @_ZdlPvm(ptr noundef nonnull %3, i64 noundef 80) #16
  resume { ptr, i32 } %10
}